target datalayout = "e-m:e-p270:32:32-p271:32:32-p272:64:64-i64:64-i128:128-f80:128-n8:16:32:64-S128"
target triple = "x86_64-unknown-linux-gnu"

; Function Attrs: mustprogress uwtable
define dso_local noundef zeroext i1 @_ZN15btGjkEpaSolver214SignedDistanceEPK13btConvexShapeRK11btTransformS2_S5_RK9btVector3RNS_8sResultsE(ptr noundef %shape0, ptr noundef nonnull align 4 dereferenceable(64) %wtrs0, ptr noundef %shape1, ptr noundef nonnull align 4 dereferenceable(64) %wtrs1, ptr noundef nonnull align 4 dereferenceable(16) %guess, ptr noundef nonnull align 4 dereferenceable(56) %results) #3 align 2 {
entry:
  %retval = alloca i1, align 1
  %shape0.addr = alloca ptr, align 8
  %wtrs0.addr = alloca ptr, align 8
  %shape1.addr = alloca ptr, align 8
  %wtrs1.addr = alloca ptr, align 8
  %guess.addr = alloca ptr, align 8
  %results.addr = alloca ptr, align 8
  store ptr %shape0, ptr %shape0.addr, align 8
  store ptr %wtrs0, ptr %wtrs0.addr, align 8
  store ptr %shape1, ptr %shape1.addr, align 8
  store ptr %wtrs1, ptr %wtrs1.addr, align 8
  store ptr %guess, ptr %guess.addr, align 8
  store ptr %results, ptr %results.addr, align 8
  %0 = load ptr, ptr %shape0.addr, align 8
  %1 = load ptr, ptr %wtrs0.addr, align 8
  %2 = load ptr, ptr %shape1.addr, align 8
  %3 = load ptr, ptr %wtrs1.addr, align 8
  %4 = load ptr, ptr %guess.addr, align 8
  %5 = load ptr, ptr %results.addr, align 8
  %call = call noundef zeroext i1 @_ZN15btGjkEpaSolver28DistanceEPK13btConvexShapeRK11btTransformS2_S5_RK9btVector3RNS_8sResultsE(ptr noundef %0, ptr noundef nonnull align 4 dereferenceable(64) %1, ptr noundef %2, ptr noundef nonnull align 4 dereferenceable(64) %3, ptr noundef nonnull align 4 dereferenceable(16) %4, ptr noundef nonnull align 4 dereferenceable(56) %5)
  br i1 %call, label %if.else, label %if.then

if.then:                                          ; preds = %entry
  %6 = load ptr, ptr %shape0.addr, align 8
  %7 = load ptr, ptr %wtrs0.addr, align 8
  %8 = load ptr, ptr %shape1.addr, align 8
  %9 = load ptr, ptr %wtrs1.addr, align 8
  %10 = load ptr, ptr %guess.addr, align 8
  %11 = load ptr, ptr %results.addr, align 8
  %call1 = call noundef zeroext i1 @_ZN15btGjkEpaSolver211PenetrationEPK13btConvexShapeRK11btTransformS2_S5_RK9btVector3RNS_8sResultsEb(ptr noundef %6, ptr noundef nonnull align 4 dereferenceable(64) %7, ptr noundef %8, ptr noundef nonnull align 4 dereferenceable(64) %9, ptr noundef nonnull align 4 dereferenceable(16) %10, ptr noundef nonnull align 4 dereferenceable(56) %11, i1 noundef zeroext false)
  store i1 %call1, ptr %retval, align 1
  br label %return

if.else:                                          ; preds = %entry
  store i1 true, ptr %retval, align 1
  br label %return

return:                                           ; preds = %if.else, %if.then
  %12 = load i1, ptr %retval, align 1
  ret i1 %12
}