; Function Attrs: mustprogress uwtable
define dso_local noundef zeroext i1 @_ZN15btGjkEpaSolver214SignedDistanceEPK13btConvexShapeRK11btTransformS2_S5_RK9btVector3RNS_8sResultsE(ptr noundef %shape0, ptr nocapture noundef nonnull readonly align 4 dereferenceable(64) %wtrs0, ptr noundef %shape1, ptr nocapture noundef nonnull readonly align 4 dereferenceable(64) %wtrs1, ptr noundef nonnull align 4 dereferenceable(16) %guess, ptr nocapture noundef nonnull writeonly align 4 dereferenceable(56) %results) local_unnamed_addr #5 align 2 {
entry:
  %call = tail call noundef zeroext i1 @_ZN15btGjkEpaSolver28DistanceEPK13btConvexShapeRK11btTransformS2_S5_RK9btVector3RNS_8sResultsE(ptr noundef %shape0, ptr noundef nonnull align 4 dereferenceable(64) %wtrs0, ptr noundef %shape1, ptr noundef nonnull align 4 dereferenceable(64) %wtrs1, ptr noundef nonnull align 4 dereferenceable(16) %guess, ptr noundef nonnull align 4 dereferenceable(56) %results)
  br i1 %call, label %return, label %if.then

if.then:                                          ; preds = %entry
  %call1 = tail call noundef zeroext i1 @_ZN15btGjkEpaSolver211PenetrationEPK13btConvexShapeRK11btTransformS2_S5_RK9btVector3RNS_8sResultsEb(ptr noundef %shape0, ptr noundef nonnull align 4 dereferenceable(64) %wtrs0, ptr noundef %shape1, ptr noundef nonnull align 4 dereferenceable(64) %wtrs1, ptr noundef nonnull align 4 dereferenceable(16) %guess, ptr noundef nonnull align 4 dereferenceable(56) %results, i1 noundef zeroext false)
  br label %return

return:                                           ; preds = %entry, %if.then
  %retval.0 = phi i1 [ %call1, %if.then ], [ true, %entry ]
  ret i1 %retval.0
}